; Function Attrs: mustprogress nounwind willreturn uwtable
define void @Gia_ManOrigIdsStart(ptr noundef captures(none) %0) local_unnamed_addr #1 {
  %2 = getelementptr inbounds nuw i8, ptr %0, i64 696
  %3 = load ptr, ptr %2, align 8, !tbaa !3
  %4 = icmp eq ptr %3, null
  br i1 %4, label %Vec_IntFreeP.exit, label %5

5:                                                ; preds = %1
  %6 = getelementptr inbounds nuw i8, ptr %3, i64 8
  %7 = load ptr, ptr %6, align 8, !tbaa !8
  %.not.i = icmp eq ptr %7, null
  br i1 %.not.i, label %10, label %.thread.i

.thread.i:                                        ; preds = %5
  tail call void @free(ptr noundef nonnull %7) #31
  %8 = load ptr, ptr %2, align 8, !tbaa !3
  %9 = getelementptr inbounds nuw i8, ptr %8, i64 8
  store ptr null, ptr %9, align 8, !tbaa !8
  br label %10

10:                                               ; preds = %.thread.i, %5
  %11 = phi ptr [ %8, %.thread.i ], [ %3, %5 ]
  tail call void @free(ptr noundef nonnull %11) #31
  store ptr null, ptr %2, align 8, !tbaa !3
  br label %Vec_IntFreeP.exit

Vec_IntFreeP.exit:                                ; preds = %1, %10
  %12 = getelementptr i8, ptr %0, i64 24
  %.val = load i32, ptr %12, align 8, !tbaa !12
  %13 = tail call noalias dereferenceable_or_null(16) ptr @malloc(i64 noundef 16) #32
  %14 = add i32 %.val, -1
  %or.cond.i.i = icmp ult i32 %14, 15
  %spec.store.select.i.i = select i1 %or.cond.i.i, i32 16, i32 %.val
  %15 = getelementptr inbounds nuw i8, ptr %13, i64 4
  store i32 %spec.store.select.i.i, ptr %13, align 8, !tbaa !30
  %.not.i.i = icmp eq i32 %spec.store.select.i.i, 0
  br i1 %.not.i.i, label %Vec_IntAlloc.exit.thread.i, label %Vec_IntAlloc.exit.i

Vec_IntAlloc.exit.thread.i:                       ; preds = %Vec_IntFreeP.exit
  %16 = getelementptr inbounds nuw i8, ptr %13, i64 8
  store ptr null, ptr %16, align 8, !tbaa !8
  store i32 %.val, ptr %15, align 4, !tbaa !31
  br label %Vec_IntStartFull.exit

Vec_IntAlloc.exit.i:                              ; preds = %Vec_IntFreeP.exit
  %17 = sext i32 %spec.store.select.i.i to i64
  %18 = shl nsw i64 %17, 2
  %19 = tail call noalias ptr @malloc(i64 noundef %18) #32
  %20 = getelementptr inbounds nuw i8, ptr %13, i64 8
  store ptr %19, ptr %20, align 8, !tbaa !8
  store i32 %.val, ptr %15, align 4, !tbaa !31
  %.not.i3 = icmp eq ptr %19, null
  br i1 %.not.i3, label %Vec_IntStartFull.exit, label %21

21:                                               ; preds = %Vec_IntAlloc.exit.i
  %22 = sext i32 %.val to i64
  %23 = shl nsw i64 %22, 2
  tail call void @llvm.memset.p0.i64(ptr nonnull align 4 %19, i8 -1, i64 %23, i1 false)
  br label %Vec_IntStartFull.exit

Vec_IntStartFull.exit:                            ; preds = %Vec_IntAlloc.exit.thread.i, %Vec_IntAlloc.exit.i, %21
  store ptr %13, ptr %2, align 8, !tbaa !35
  ret void
}